target datalayout = "e-m:e-p270:32:32-p271:32:32-p272:64:64-i64:64-i128:128-f80:128-n8:16:32:64-S128"
target triple = "x86_64-pc-linux-gnu"

%struct.AVFilterPad = type { ptr, i32, i32, %union.anon, ptr, ptr, ptr }
%union.anon = type { ptr }
%struct.AVFilterContext = type { ptr, ptr, ptr, ptr, ptr, i32, ptr, ptr, i32, ptr, ptr, i32, i32, ptr, ptr, ptr, ptr, i32, ptr, i32, i32 }
%struct.AVFilter = type { ptr, ptr, ptr, ptr, ptr, i32 }
%struct.PreMultiplyContext = type { ptr, [4 x i32], [4 x i32], [4 x i32], i32, i32, i32, i32, i32, i32, i32, i32, %struct.FFFrameSync, [4 x ptr] }
%struct.FFFrameSync = type { ptr, ptr, i32, %struct.AVRational, i64, ptr, ptr, i32, i32, i8, i8, ptr, i32, i32, i32, i32 }
%struct.AVRational = type { i32, i32 }

@.str.2 = private unnamed_addr constant [14 x i8] c"unpremultiply\00", align 1
@.str.13 = private unnamed_addr constant [5 x i8] c"main\00", align 1
@.str.14 = private unnamed_addr constant [6 x i8] c"alpha\00", align 1

; Function Attrs: cold nounwind optsize uwtable
define internal i32 @init(ptr noundef %0) #0 {
  %2 = alloca i32, align 4
  %3 = alloca ptr, align 8
  %4 = alloca ptr, align 8
  %5 = alloca %struct.AVFilterPad, align 8
  %6 = alloca i32, align 4
  %7 = alloca i32, align 4
  store ptr %0, ptr %3, align 8, !tbaa !4
  call void @llvm.lifetime.start.p0(i64 8, ptr %4) #11
  %8 = load ptr, ptr %3, align 8, !tbaa !4
  %9 = getelementptr inbounds nuw %struct.AVFilterContext, ptr %8, i32 0, i32 9
  %10 = load ptr, ptr %9, align 8, !tbaa !9
  store ptr %10, ptr %4, align 8, !tbaa !22
  call void @llvm.lifetime.start.p0(i64 48, ptr %5) #11
  call void @llvm.memset.p0.i64(ptr align 8 %5, i8 0, i64 48, i1 false)
  call void @llvm.lifetime.start.p0(i64 4, ptr %6) #11
  %11 = load ptr, ptr %3, align 8, !tbaa !4
  %12 = getelementptr inbounds nuw %struct.AVFilterContext, ptr %11, i32 0, i32 1
  %13 = load ptr, ptr %12, align 8, !tbaa !24
  %14 = getelementptr inbounds nuw %struct.AVFilter, ptr %13, i32 0, i32 0
  %15 = load ptr, ptr %14, align 8, !tbaa !25
  %16 = call i32 @strcmp(ptr noundef %15, ptr noundef @.str.2) #12
  %17 = icmp ne i32 %16, 0
  br i1 %17, label %21, label %18

18:                                               ; preds = %1
  %19 = load ptr, ptr %4, align 8, !tbaa !22
  %20 = getelementptr inbounds nuw %struct.PreMultiplyContext, ptr %19, i32 0, i32 6
  store i32 1, ptr %20, align 8, !tbaa !27
  br label %21

21:                                               ; preds = %18, %1
  %22 = getelementptr inbounds nuw %struct.AVFilterPad, ptr %5, i32 0, i32 1
  store i32 0, ptr %22, align 8, !tbaa !33
  %23 = getelementptr inbounds nuw %struct.AVFilterPad, ptr %5, i32 0, i32 0
  store ptr @.str.13, ptr %23, align 8, !tbaa !35
  %24 = getelementptr inbounds nuw %struct.AVFilterPad, ptr %5, i32 0, i32 6
  store ptr @config_input, ptr %24, align 8, !tbaa !36
  %25 = load ptr, ptr %3, align 8, !tbaa !4
  %26 = call i32 @ff_append_inpad(ptr noundef %25, ptr noundef %5)
  store i32 %26, ptr %6, align 4, !tbaa !37
  %27 = icmp slt i32 %26, 0
  br i1 %27, label %28, label %30

28:                                               ; preds = %21
  %29 = load i32, ptr %6, align 4, !tbaa !37
  store i32 %29, ptr %2, align 4
  store i32 1, ptr %7, align 4
  br label %46

30:                                               ; preds = %21
  %31 = load ptr, ptr %4, align 8, !tbaa !22
  %32 = getelementptr inbounds nuw %struct.PreMultiplyContext, ptr %31, i32 0, i32 7
  %33 = load i32, ptr %32, align 4, !tbaa !38
  %34 = icmp ne i32 %33, 0
  br i1 %34, label %45, label %35

35:                                               ; preds = %30
  %36 = getelementptr inbounds nuw %struct.AVFilterPad, ptr %5, i32 0, i32 1
  store i32 0, ptr %36, align 8, !tbaa !33
  %37 = getelementptr inbounds nuw %struct.AVFilterPad, ptr %5, i32 0, i32 0
  store ptr @.str.14, ptr %37, align 8, !tbaa !35
  %38 = getelementptr inbounds nuw %struct.AVFilterPad, ptr %5, i32 0, i32 6
  store ptr null, ptr %38, align 8, !tbaa !36
  %39 = load ptr, ptr %3, align 8, !tbaa !4
  %40 = call i32 @ff_append_inpad(ptr noundef %39, ptr noundef %5)
  store i32 %40, ptr %6, align 4, !tbaa !37
  %41 = icmp slt i32 %40, 0
  br i1 %41, label %42, label %44

42:                                               ; preds = %35
  %43 = load i32, ptr %6, align 4, !tbaa !37
  store i32 %43, ptr %2, align 4
  store i32 1, ptr %7, align 4
  br label %46

44:                                               ; preds = %35
  br label %45

45:                                               ; preds = %44, %30
  store i32 0, ptr %2, align 4
  store i32 1, ptr %7, align 4
  br label %46

46:                                               ; preds = %45, %42, %28
  call void @llvm.lifetime.end.p0(i64 4, ptr %6) #11
  call void @llvm.lifetime.end.p0(i64 48, ptr %5) #11
  call void @llvm.lifetime.end.p0(i64 8, ptr %4) #11
  %47 = load i32, ptr %2, align 4
  ret i32 %47
}