; Function Attrs: cold nounwind optsize uwtable
define internal range(i32 -2147483648, 1) i32 @init(ptr noundef %0) #0 {
  %2 = alloca %struct.AVFilterPad, align 8
  %3 = getelementptr inbounds nuw i8, ptr %0, i64 72
  %4 = load ptr, ptr %3, align 8, !tbaa !4
  call void @llvm.lifetime.start.p0(i64 48, ptr nonnull %2) #11
  %5 = getelementptr inbounds nuw i8, ptr %2, i64 8
  call void @llvm.memset.p0.i64(ptr noundef nonnull align 8 dereferenceable(32) %5, i8 0, i64 32, i1 false)
  %6 = getelementptr inbounds nuw i8, ptr %0, i64 8
  %7 = load ptr, ptr %6, align 8, !tbaa !20
  %8 = load ptr, ptr %7, align 8, !tbaa !21
  %9 = tail call i32 @strcmp(ptr noundef nonnull dereferenceable(1) %8, ptr noundef nonnull dereferenceable(14) @.str.2) #12
  %.not = icmp eq i32 %9, 0
  br i1 %.not, label %10, label %12

10:                                               ; preds = %1
  %11 = getelementptr inbounds nuw i8, ptr %4, i64 64
  store i32 1, ptr %11, align 8, !tbaa !23
  br label %12

12:                                               ; preds = %10, %1
  %13 = getelementptr inbounds nuw i8, ptr %2, i64 8
  store i32 0, ptr %13, align 8, !tbaa !30
  store ptr @.str.13, ptr %2, align 8, !tbaa !32
  %14 = getelementptr inbounds nuw i8, ptr %2, i64 40
  store ptr @config_input, ptr %14, align 8, !tbaa !33
  %15 = call i32 @ff_append_inpad(ptr noundef nonnull %0, ptr noundef nonnull %2) #11
  %16 = icmp slt i32 %15, 0
  br i1 %16, label %24, label %17

17:                                               ; preds = %12
  %18 = getelementptr inbounds nuw i8, ptr %4, i64 68
  %19 = load i32, ptr %18, align 4, !tbaa !34
  %.not10 = icmp eq i32 %19, 0
  br i1 %.not10, label %20, label %23

20:                                               ; preds = %17
  store i32 0, ptr %13, align 8, !tbaa !30
  store ptr @.str.14, ptr %2, align 8, !tbaa !32
  store ptr null, ptr %14, align 8, !tbaa !33
  %21 = call i32 @ff_append_inpad(ptr noundef nonnull %0, ptr noundef nonnull %2) #11
  %22 = icmp slt i32 %21, 0
  br i1 %22, label %24, label %23

23:                                               ; preds = %20, %17
  br label %24

24:                                               ; preds = %20, %12, %23
  %.0 = phi i32 [ 0, %23 ], [ %15, %12 ], [ %21, %20 ]
  call void @llvm.lifetime.end.p0(i64 48, ptr nonnull %2) #11
  ret i32 %.0
}